target datalayout = "e-m:e-p270:32:32-p271:32:32-p272:64:64-i64:64-i128:128-f80:128-n8:16:32:64-S128"
target triple = "x86_64-pc-linux-gnu"

%struct._aim_client_capability = type { ptr, %struct._e_guid_t }
%struct._e_guid_t = type { i32, i16, i16, [8 x i8] }

@hf_aim_nickinfo_caps = internal global i32 0, align 4
@.str.110 = private unnamed_addr constant [8 x i8] c"Unknown\00", align 1
@.str.660 = private unnamed_addr constant [54 x i8] c"%s {%08x-%04x-%04x-%02x%02x-%02x%02x%02x%02x%02x%02x}\00", align 1

; Function Attrs: nounwind null_pointer_is_valid sspstrong uwtable
define internal ptr @aim_find_capability(i64 %0, i64 %1) #3 {
  %3 = alloca ptr, align 8
  %4 = alloca %struct._e_guid_t, align 4
  %5 = alloca i32, align 4
  %6 = alloca ptr, align 8
  %7 = alloca i32, align 4
  %8 = getelementptr inbounds nuw { i64, i64 }, ptr %4, i32 0, i32 0
  store i64 %0, ptr %8, align 4
  %9 = getelementptr inbounds nuw { i64, i64 }, ptr %4, i32 0, i32 1
  store i64 %1, ptr %9, align 4
  call void @llvm.lifetime.start.p0(i64 4, ptr %5) #13
  store i32 0, ptr %5, align 4
  br label %10

10:                                               ; preds = %31, %2
  %11 = load i32, ptr %5, align 4
  %12 = sext i32 %11 to i64
  %13 = getelementptr [34 x %struct._aim_client_capability], ptr @known_client_caps, i64 0, i64 %12
  %14 = getelementptr inbounds nuw %struct._aim_client_capability, ptr %13, i32 0, i32 0
  %15 = load ptr, ptr %14, align 8
  %16 = icmp ne ptr %15, null
  br i1 %16, label %17, label %34

17:                                               ; preds = %10
  call void @llvm.lifetime.start.p0(i64 8, ptr %6) #13
  %18 = load i32, ptr %5, align 4
  %19 = sext i32 %18 to i64
  %20 = getelementptr [34 x %struct._aim_client_capability], ptr @known_client_caps, i64 0, i64 %19
  store ptr %20, ptr %6, align 8
  %21 = load ptr, ptr %6, align 8
  %22 = getelementptr inbounds nuw %struct._aim_client_capability, ptr %21, i32 0, i32 1
  %23 = call i32 @memcmp(ptr noundef %22, ptr noundef %4, i64 noundef 16) #16
  %24 = icmp eq i32 %23, 0
  br i1 %24, label %25, label %27

25:                                               ; preds = %17
  %26 = load ptr, ptr %6, align 8
  store ptr %26, ptr %3, align 8
  store i32 1, ptr %7, align 4
  br label %28

27:                                               ; preds = %17
  store i32 0, ptr %7, align 4
  br label %28

28:                                               ; preds = %27, %25
  call void @llvm.lifetime.end.p0(i64 8, ptr %6) #13
  %29 = load i32, ptr %7, align 4
  switch i32 %29, label %35 [
    i32 0, label %30
  ]

30:                                               ; preds = %28
  br label %31

31:                                               ; preds = %30
  %32 = load i32, ptr %5, align 4
  %33 = add i32 %32, 1
  store i32 %33, ptr %5, align 4
  br label %10, !llvm.loop !20

34:                                               ; preds = %10
  store ptr null, ptr %3, align 8
  store i32 1, ptr %7, align 4
  br label %35

35:                                               ; preds = %34, %28
  call void @llvm.lifetime.end.p0(i64 4, ptr %5) #13
  %36 = load ptr, ptr %3, align 8
  ret ptr %36
}

; Function Attrs: null_pointer_is_valid sspstrong uwtable
define internal i32 @dissect_aim_capability(ptr noundef %0, ptr noundef %1, i32 noundef %2) #0 {
  %4 = alloca ptr, align 8
  %5 = alloca ptr, align 8
  %6 = alloca i32, align 4
  %7 = alloca ptr, align 8
  %8 = alloca %struct._e_guid_t, align 4
  store ptr %0, ptr %4, align 8
  store ptr %1, ptr %5, align 8
  store i32 %2, ptr %6, align 4
  call void @llvm.lifetime.start.p0(i64 8, ptr %7) #13
  call void @llvm.lifetime.start.p0(i64 16, ptr %8) #13
  %9 = load ptr, ptr %5, align 8
  %10 = load i32, ptr %6, align 4
  call void @tvb_get_ntohguid(ptr noundef %9, i32 noundef %10, ptr noundef %8)
  %11 = getelementptr inbounds nuw { i64, i64 }, ptr %8, i32 0, i32 0
  %12 = load i64, ptr %11, align 4
  %13 = getelementptr inbounds nuw { i64, i64 }, ptr %8, i32 0, i32 1
  %14 = load i64, ptr %13, align 4
  %15 = call ptr @aim_find_capability(i64 %12, i64 %14)
  store ptr %15, ptr %7, align 8
  %16 = load ptr, ptr %4, align 8
  %17 = load i32, ptr @hf_aim_nickinfo_caps, align 4
  %18 = load ptr, ptr %5, align 8
  %19 = load i32, ptr %6, align 4
  %20 = load ptr, ptr %7, align 8
  %21 = icmp ne ptr %20, null
  br i1 %21, label %22, label %26

22:                                               ; preds = %3
  %23 = load ptr, ptr %7, align 8
  %24 = getelementptr inbounds nuw %struct._aim_client_capability, ptr %23, i32 0, i32 0
  %25 = load ptr, ptr %24, align 8
  br label %27

26:                                               ; preds = %3
  br label %27

27:                                               ; preds = %26, %22
  %28 = phi ptr [ %25, %22 ], [ @.str.110, %26 ]
  %29 = getelementptr inbounds nuw %struct._e_guid_t, ptr %8, i32 0, i32 0
  %30 = load i32, ptr %29, align 4
  %31 = getelementptr inbounds nuw %struct._e_guid_t, ptr %8, i32 0, i32 1
  %32 = load i16, ptr %31, align 4
  %33 = zext i16 %32 to i32
  %34 = getelementptr inbounds nuw %struct._e_guid_t, ptr %8, i32 0, i32 2
  %35 = load i16, ptr %34, align 2
  %36 = zext i16 %35 to i32
  %37 = getelementptr inbounds nuw %struct._e_guid_t, ptr %8, i32 0, i32 3
  %38 = getelementptr [8 x i8], ptr %37, i64 0, i64 0
  %39 = load i8, ptr %38, align 4
  %40 = zext i8 %39 to i32
  %41 = getelementptr inbounds nuw %struct._e_guid_t, ptr %8, i32 0, i32 3
  %42 = getelementptr [8 x i8], ptr %41, i64 0, i64 1
  %43 = load i8, ptr %42, align 1
  %44 = zext i8 %43 to i32
  %45 = getelementptr inbounds nuw %struct._e_guid_t, ptr %8, i32 0, i32 3
  %46 = getelementptr [8 x i8], ptr %45, i64 0, i64 2
  %47 = load i8, ptr %46, align 2
  %48 = zext i8 %47 to i32
  %49 = getelementptr inbounds nuw %struct._e_guid_t, ptr %8, i32 0, i32 3
  %50 = getelementptr [8 x i8], ptr %49, i64 0, i64 3
  %51 = load i8, ptr %50, align 1
  %52 = zext i8 %51 to i32
  %53 = getelementptr inbounds nuw %struct._e_guid_t, ptr %8, i32 0, i32 3
  %54 = getelementptr [8 x i8], ptr %53, i64 0, i64 4
  %55 = load i8, ptr %54, align 4
  %56 = zext i8 %55 to i32
  %57 = getelementptr inbounds nuw %struct._e_guid_t, ptr %8, i32 0, i32 3
  %58 = getelementptr [8 x i8], ptr %57, i64 0, i64 5
  %59 = load i8, ptr %58, align 1
  %60 = zext i8 %59 to i32
  %61 = getelementptr inbounds nuw %struct._e_guid_t, ptr %8, i32 0, i32 3
  %62 = getelementptr [8 x i8], ptr %61, i64 0, i64 6
  %63 = load i8, ptr %62, align 2
  %64 = zext i8 %63 to i32
  %65 = getelementptr inbounds nuw %struct._e_guid_t, ptr %8, i32 0, i32 3
  %66 = getelementptr [8 x i8], ptr %65, i64 0, i64 7
  %67 = load i8, ptr %66, align 1
  %68 = zext i8 %67 to i32
  %69 = call ptr (ptr, i32, ptr, i32, i32, ptr, ptr, ...) @proto_tree_add_guid_format(ptr noundef %16, i32 noundef %17, ptr noundef %18, i32 noundef %19, i32 noundef 16, ptr noundef %8, ptr noundef @.str.660, ptr noundef %28, i32 noundef %30, i32 noundef %33, i32 noundef %36, i32 noundef %40, i32 noundef %44, i32 noundef %48, i32 noundef %52, i32 noundef %56, i32 noundef %60, i32 noundef %64, i32 noundef %68)
  %70 = load i32, ptr %6, align 4
  %71 = add i32 %70, 16
  call void @llvm.lifetime.end.p0(i64 16, ptr %8) #13
  call void @llvm.lifetime.end.p0(i64 8, ptr %7) #13
  ret i32 %71
}