; Function Attrs: null_pointer_is_valid sspstrong uwtable
define internal fastcc noundef i32 @dissect_aim_capability(ptr noundef %0, ptr noundef %1, i32 noundef %2) unnamed_addr #0 {
  %4 = alloca %struct._e_guid_t, align 8
  %5 = alloca %struct._e_guid_t, align 8
  call void @llvm.lifetime.start.p0(i64 16, ptr nonnull %5) #11
  call void @tvb_get_ntohguid(ptr noundef %1, i32 noundef %2, ptr noundef nonnull %5)
  %6 = load i64, ptr %5, align 8
  %7 = getelementptr inbounds nuw i8, ptr %5, i64 8
  %8 = load i64, ptr %7, align 8
  call void @llvm.lifetime.start.p0(i64 16, ptr nonnull %4)
  store i64 %6, ptr %4, align 8
  %9 = getelementptr inbounds nuw i8, ptr %4, i64 8
  store i64 %8, ptr %9, align 8
  br label %13

10:                                               ; preds = %13
  %indvars.iv.next.i = add nuw nsw i64 %indvars.iv.i, 1
  %11 = getelementptr [34 x %struct._aim_client_capability], ptr @known_client_caps, i64 0, i64 %indvars.iv.next.i
  %exitcond.i = icmp eq i64 %indvars.iv.next.i, 33
  br i1 %exitcond.i, label %aim_find_capability.exit.thread, label %13, !llvm.loop !18

aim_find_capability.exit.thread:                  ; preds = %10
  call void @llvm.lifetime.end.p0(i64 16, ptr nonnull %4)
  %12 = load i32, ptr @hf_aim_nickinfo_caps, align 4
  br label %19

13:                                               ; preds = %10, %3
  %indvars.iv.i = phi i64 [ 0, %3 ], [ %indvars.iv.next.i, %10 ]
  %14 = phi ptr [ @known_client_caps, %3 ], [ %11, %10 ]
  %15 = getelementptr inbounds nuw i8, ptr %14, i64 8
  %bcmp.i = call i32 @bcmp(ptr noundef nonnull dereferenceable(16) %15, ptr noundef nonnull dereferenceable(16) %4, i64 16)
  %.not8.i = icmp eq i32 %bcmp.i, 0
  br i1 %.not8.i, label %aim_find_capability.exit, label %10

aim_find_capability.exit:                         ; preds = %13
  call void @llvm.lifetime.end.p0(i64 16, ptr nonnull %4)
  %16 = load i32, ptr @hf_aim_nickinfo_caps, align 4
  %.not = icmp eq ptr %14, null
  br i1 %.not, label %19, label %17

17:                                               ; preds = %aim_find_capability.exit
  %18 = load ptr, ptr %14, align 8
  br label %19

19:                                               ; preds = %aim_find_capability.exit.thread, %aim_find_capability.exit, %17
  %20 = phi i32 [ %16, %17 ], [ %16, %aim_find_capability.exit ], [ %12, %aim_find_capability.exit.thread ]
  %21 = phi ptr [ %18, %17 ], [ @.str.110, %aim_find_capability.exit ], [ @.str.110, %aim_find_capability.exit.thread ]
  %22 = lshr i64 %8, 56
  %23 = trunc nuw nsw i64 %22 to i32
  %24 = lshr i64 %8, 48
  %25 = trunc nuw nsw i64 %24 to i32
  %26 = lshr i64 %8, 40
  %27 = trunc nuw nsw i64 %26 to i32
  %28 = lshr i64 %8, 32
  %29 = trunc nuw i64 %28 to i32
  %30 = trunc i64 %8 to i32
  %31 = lshr i32 %30, 24
  %32 = trunc i64 %8 to i32
  %33 = lshr i32 %32, 16
  %34 = trunc i64 %8 to i32
  %35 = lshr i32 %34, 8
  %36 = trunc i64 %8 to i32
  %37 = lshr i64 %6, 48
  %38 = trunc nuw nsw i64 %37 to i32
  %39 = lshr i64 %6, 32
  %40 = trunc nuw i64 %39 to i32
  %41 = trunc i64 %6 to i32
  %42 = and i32 %40, 65535
  %43 = and i32 %36, 255
  %44 = and i32 %35, 255
  %45 = and i32 %33, 255
  %46 = and i32 %29, 255
  %47 = and i32 %27, 255
  %48 = and i32 %25, 255
  %49 = call ptr (ptr, i32, ptr, i32, i32, ptr, ptr, ...) @proto_tree_add_guid_format(ptr noundef %0, i32 noundef %20, ptr noundef %1, i32 noundef %2, i32 noundef 16, ptr noundef nonnull %5, ptr noundef nonnull @.str.660, ptr noundef %21, i32 noundef %41, i32 noundef %42, i32 noundef %38, i32 noundef %43, i32 noundef %44, i32 noundef %45, i32 noundef %31, i32 noundef %46, i32 noundef %47, i32 noundef %48, i32 noundef %23)
  %50 = add i32 %2, 16
  call void @llvm.lifetime.end.p0(i64 16, ptr nonnull %5) #11
  ret i32 %50
}